target datalayout = "e-m:e-p270:32:32-p271:32:32-p272:64:64-i64:64-i128:128-f80:128-n8:16:32:64-S128"
target triple = "x86_64-pc-linux-gnu"

%struct.test_case = type { ptr, ptr, i32, i32, ptr, i32, i32 }

@stderr = external global ptr, align 8
@.str.2 = private unnamed_addr constant [28 x i8] c"Test index out of range: %d\00", align 1
@prefixes = internal global [5 x ptr] [ptr @.str.5, ptr @.str.6, ptr @gunk, ptr @.str.5, ptr @.str.5], align 16
@lengths = internal global [6 x i32] [i32 0, i32 3, i32 48, i32 192, i32 768, i32 1536], align 16
@suffixes = internal global [5 x ptr] [ptr @.str.5, ptr @.str.5, ptr @.str.5, ptr @.str.7, ptr @.str.6], align 16
@.str.3 = private unnamed_addr constant [34 x i8] c"../openssl/test/bio_base64_test.c\00", align 1
@.str.4 = private unnamed_addr constant [37 x i8] c"Unexpected suffix test after padding\00", align 1

; Function Attrs: nounwind uwtable
define internal i32 @quotrem(i32 noundef %0, i32 noundef %1, ptr noundef %2) #0 {
  %4 = alloca i32, align 4
  %5 = alloca i32, align 4
  %6 = alloca ptr, align 8
  store i32 %0, ptr %4, align 4, !tbaa !7
  store i32 %1, ptr %5, align 4, !tbaa !7
  store ptr %2, ptr %6, align 8, !tbaa !22
  %7 = load i32, ptr %4, align 4, !tbaa !7
  %8 = load i32, ptr %5, align 4, !tbaa !7
  %9 = udiv i32 %7, %8
  %10 = load ptr, ptr %6, align 8, !tbaa !22
  store i32 %9, ptr %10, align 4, !tbaa !7
  %11 = load i32, ptr %4, align 4, !tbaa !7
  %12 = load ptr, ptr %6, align 8, !tbaa !22
  %13 = load i32, ptr %12, align 4, !tbaa !7
  %14 = load i32, ptr %5, align 4, !tbaa !7
  %15 = mul i32 %13, %14
  %16 = sub i32 %11, %15
  ret i32 %16
}

; Function Attrs: nounwind uwtable
define internal i32 @test_bio_base64_generated(i32 noundef %0) #0 {
  %2 = alloca i32, align 4
  %3 = alloca i32, align 4
  %4 = alloca %struct.test_case, align 8
  %5 = alloca i32, align 4
  %6 = alloca i32, align 4
  %7 = alloca i32, align 4
  %8 = alloca i32, align 4
  %9 = alloca i32, align 4
  store i32 %0, ptr %3, align 4, !tbaa !7
  call void @llvm.lifetime.start.p0(i64 40, ptr %4) #6
  call void @llvm.lifetime.start.p0(i64 4, ptr %5) #6
  call void @llvm.lifetime.start.p0(i64 4, ptr %6) #6
  call void @llvm.lifetime.start.p0(i64 4, ptr %7) #6
  call void @llvm.lifetime.start.p0(i64 4, ptr %8) #6
  %10 = load i32, ptr %3, align 4, !tbaa !7
  store i32 %10, ptr %8, align 4, !tbaa !7
  %11 = load i32, ptr %8, align 4, !tbaa !7
  %12 = call i32 @quotrem(i32 noundef %11, i32 noundef 6, ptr noundef %8)
  store i32 %12, ptr %6, align 4, !tbaa !7
  %13 = load i32, ptr %8, align 4, !tbaa !7
  %14 = call i32 @quotrem(i32 noundef %13, i32 noundef 25, ptr noundef %8)
  store i32 %14, ptr %5, align 4, !tbaa !7
  %15 = load i32, ptr %5, align 4, !tbaa !7
  %16 = call i32 @quotrem(i32 noundef %15, i32 noundef 6, ptr noundef %5)
  store i32 %16, ptr %7, align 4, !tbaa !7
  %17 = load i32, ptr %8, align 4, !tbaa !7
  %18 = call i32 @quotrem(i32 noundef %17, i32 noundef 2, ptr noundef %8)
  %19 = getelementptr inbounds nuw %struct.test_case, ptr %4, i32 0, i32 5
  store i32 %18, ptr %19, align 8, !tbaa !9
  %20 = load i32, ptr %8, align 4, !tbaa !7
  %21 = call i32 @quotrem(i32 noundef %20, i32 noundef 2, ptr noundef %8)
  %22 = getelementptr inbounds nuw %struct.test_case, ptr %4, i32 0, i32 6
  store i32 %21, ptr %22, align 4, !tbaa !13
  %23 = load i32, ptr %8, align 4, !tbaa !7
  %24 = icmp ne i32 %23, 0
  br i1 %24, label %25, label %29

25:                                               ; preds = %1
  %26 = load ptr, ptr @stderr, align 8, !tbaa !14
  %27 = load i32, ptr %3, align 4, !tbaa !7
  %28 = call i32 (ptr, ptr, ...) @fprintf(ptr noundef %26, ptr noundef @.str.2, i32 noundef %27) #6
  store i32 0, ptr %2, align 4
  store i32 1, ptr %9, align 4
  br label %83

29:                                               ; preds = %1
  %30 = load i32, ptr %5, align 4, !tbaa !7
  %31 = sext i32 %30 to i64
  %32 = getelementptr inbounds [5 x ptr], ptr @prefixes, i64 0, i64 %31
  %33 = load ptr, ptr %32, align 8, !tbaa !16
  %34 = getelementptr inbounds nuw %struct.test_case, ptr %4, i32 0, i32 0
  store ptr %33, ptr %34, align 8, !tbaa !17
  %35 = getelementptr inbounds nuw %struct.test_case, ptr %4, i32 0, i32 1
  store ptr null, ptr %35, align 8, !tbaa !18
  %36 = load i32, ptr %6, align 4, !tbaa !7
  %37 = sext i32 %36 to i64
  %38 = getelementptr inbounds [6 x i32], ptr @lengths, i64 0, i64 %37
  %39 = load i32, ptr %38, align 4, !tbaa !7
  %40 = getelementptr inbounds nuw %struct.test_case, ptr %4, i32 0, i32 2
  store i32 %39, ptr %40, align 8, !tbaa !19
  %41 = getelementptr inbounds nuw %struct.test_case, ptr %4, i32 0, i32 3
  store i32 0, ptr %41, align 4, !tbaa !20
  %42 = load i32, ptr %7, align 4, !tbaa !7
  %43 = icmp ne i32 %42, 0
  br i1 %43, label %44, label %52

44:                                               ; preds = %29
  %45 = load i32, ptr %7, align 4, !tbaa !7
  %46 = icmp slt i32 %45, 3
  br i1 %46, label %47, label %52

47:                                               ; preds = %44
  %48 = load i32, ptr %7, align 4, !tbaa !7
  %49 = getelementptr inbounds nuw %struct.test_case, ptr %4, i32 0, i32 2
  %50 = load i32, ptr %49, align 8, !tbaa !19
  %51 = add i32 %50, %48
  store i32 %51, ptr %49, align 8, !tbaa !19
  br label %60

52:                                               ; preds = %44, %29
  %53 = load i32, ptr %7, align 4, !tbaa !7
  %54 = icmp sge i32 %53, 3
  br i1 %54, label %55, label %59

55:                                               ; preds = %52
  %56 = load i32, ptr %7, align 4, !tbaa !7
  %57 = sub nsw i32 %56, 2
  %58 = getelementptr inbounds nuw %struct.test_case, ptr %4, i32 0, i32 3
  store i32 %57, ptr %58, align 4, !tbaa !20
  br label %59

59:                                               ; preds = %55, %52
  br label %60

60:                                               ; preds = %59, %47
  %61 = load i32, ptr %5, align 4, !tbaa !7
  %62 = sext i32 %61 to i64
  %63 = getelementptr inbounds [5 x ptr], ptr @suffixes, i64 0, i64 %62
  %64 = load ptr, ptr %63, align 8, !tbaa !16
  %65 = getelementptr inbounds nuw %struct.test_case, ptr %4, i32 0, i32 4
  store ptr %64, ptr %65, align 8, !tbaa !21
  %66 = load i32, ptr %7, align 4, !tbaa !7
  %67 = icmp ne i32 %66, 0
  br i1 %67, label %68, label %81

68:                                               ; preds = %60
  %69 = getelementptr inbounds nuw %struct.test_case, ptr %4, i32 0, i32 4
  %70 = load ptr, ptr %69, align 8, !tbaa !21
  %71 = load i8, ptr %70, align 1, !tbaa !4
  %72 = sext i8 %71 to i32
  %73 = icmp ne i32 %72, 0
  br i1 %73, label %74, label %81

74:                                               ; preds = %68
  %75 = getelementptr inbounds nuw %struct.test_case, ptr %4, i32 0, i32 4
  %76 = load ptr, ptr %75, align 8, !tbaa !21
  %77 = load i8, ptr %76, align 1, !tbaa !4
  %78 = sext i8 %77 to i32
  %79 = icmp ne i32 %78, 45
  br i1 %79, label %80, label %81

80:                                               ; preds = %74
  call void (ptr, i32, ptr, ...) @test_error(ptr noundef @.str.3, i32 noundef 398, ptr noundef @.str.4)
  store i32 0, ptr %2, align 4
  store i32 1, ptr %9, align 4
  br label %83

81:                                               ; preds = %74, %68, %60
  %82 = call i32 @generic_case(ptr noundef %4, i32 noundef 0)
  store i32 %82, ptr %2, align 4
  store i32 1, ptr %9, align 4
  br label %83

83:                                               ; preds = %81, %80, %25
  call void @llvm.lifetime.end.p0(i64 4, ptr %8) #6
  call void @llvm.lifetime.end.p0(i64 4, ptr %7) #6
  call void @llvm.lifetime.end.p0(i64 4, ptr %6) #6
  call void @llvm.lifetime.end.p0(i64 4, ptr %5) #6
  call void @llvm.lifetime.end.p0(i64 40, ptr %4) #6
  %84 = load i32, ptr %2, align 4
  ret i32 %84
}