; Function Attrs: nounwind uwtable
define internal range(i32 0, 2) i32 @test_bio_base64_generated(i32 noundef %0) #0 {
  %2 = alloca %struct.test_case, align 8
  call void @llvm.lifetime.start.p0(i64 40, ptr nonnull %2) #8
  %3 = udiv i32 %0, 6
  %4 = udiv i32 %0, 150
  %.neg20 = mul nsw i32 %4, -25
  %5 = add nsw i32 %.neg20, %3
  %6 = udiv i32 %5, 6
  %.neg21 = mul i32 %6, -6
  %7 = add i32 %.neg21, %5
  %8 = udiv i32 %0, 300
  %9 = shl nuw nsw i32 %8, 1
  %10 = sub nsw i32 %4, %9
  %11 = getelementptr inbounds nuw i8, ptr %2, i64 32
  store i32 %10, ptr %11, align 8, !tbaa !7
  %12 = udiv i32 %0, 600
  %13 = shl nuw nsw i32 %12, 1
  %14 = sub nsw i32 %8, %13
  %15 = getelementptr inbounds nuw i8, ptr %2, i64 36
  store i32 %14, ptr %15, align 4, !tbaa !12
  %.not = icmp ult i32 %0, 600
  br i1 %.not, label %19, label %16

16:                                               ; preds = %1
  %17 = load ptr, ptr @stderr, align 8, !tbaa !13
  %18 = tail call i32 (ptr, ptr, ...) @fprintf(ptr noundef %17, ptr noundef nonnull @.str.2, i32 noundef %0) #9
  br label %50

19:                                               ; preds = %1
  %.neg = mul nsw i32 %3, -6
  %20 = add nsw i32 %.neg, %0
  %21 = zext nneg i32 %6 to i64
  %22 = getelementptr inbounds nuw [5 x ptr], ptr @prefixes, i64 0, i64 %21
  %23 = load ptr, ptr %22, align 8, !tbaa !15
  store ptr %23, ptr %2, align 8, !tbaa !16
  %24 = getelementptr inbounds nuw i8, ptr %2, i64 8
  store ptr null, ptr %24, align 8, !tbaa !17
  %25 = sext i32 %20 to i64
  %26 = getelementptr inbounds [6 x i32], ptr @lengths, i64 0, i64 %25
  %27 = load i32, ptr %26, align 4, !tbaa !18
  %28 = getelementptr inbounds nuw i8, ptr %2, i64 16
  store i32 %27, ptr %28, align 8, !tbaa !19
  %29 = getelementptr inbounds nuw i8, ptr %2, i64 20
  store i32 0, ptr %29, align 4, !tbaa !20
  %30 = icmp ne i32 %7, 0
  %31 = icmp slt i32 %7, 3
  %or.cond = and i1 %30, %31
  br i1 %or.cond, label %32, label %34

32:                                               ; preds = %19
  %33 = add i32 %27, %7
  store i32 %33, ptr %28, align 8, !tbaa !19
  br label %40

34:                                               ; preds = %19
  %35 = icmp samesign ugt i32 %7, 2
  br i1 %35, label %.thread, label %40

.thread:                                          ; preds = %34
  %36 = add nsw i32 %7, -2
  store i32 %36, ptr %29, align 4, !tbaa !20
  %37 = getelementptr inbounds nuw [5 x ptr], ptr @suffixes, i64 0, i64 %21
  %38 = load ptr, ptr %37, align 8, !tbaa !15
  %39 = getelementptr inbounds nuw i8, ptr %2, i64 24
  store ptr %38, ptr %39, align 8, !tbaa !21
  br label %44

40:                                               ; preds = %34, %32
  %41 = getelementptr inbounds nuw [5 x ptr], ptr @suffixes, i64 0, i64 %21
  %42 = load ptr, ptr %41, align 8, !tbaa !15
  %43 = getelementptr inbounds nuw i8, ptr %2, i64 24
  store ptr %42, ptr %43, align 8, !tbaa !21
  br i1 %30, label %44, label %48

44:                                               ; preds = %.thread, %40
  %45 = phi ptr [ %38, %.thread ], [ %42, %40 ]
  %46 = load i8, ptr %45, align 1, !tbaa !4
  switch i8 %46, label %47 [
    i8 0, label %48
    i8 45, label %48
  ]

47:                                               ; preds = %44
  tail call void (ptr, i32, ptr, ...) @test_error(ptr noundef nonnull @.str.3, i32 noundef 398, ptr noundef nonnull @.str.4) #8
  br label %50

48:                                               ; preds = %44, %44, %40
  %49 = call fastcc i32 @generic_case(ptr noundef %2)
  br label %50

50:                                               ; preds = %48, %47, %16
  %.0 = phi i32 [ 0, %16 ], [ 0, %47 ], [ %49, %48 ]
  call void @llvm.lifetime.end.p0(i64 40, ptr nonnull %2) #8
  ret i32 %.0
}